; Function Attrs: nofree norecurse nosync nounwind null_pointer_is_valid sspstrong memory(read, inaccessiblemem: none) uwtable
define i32 @wmem_strong_hash(ptr noundef readonly captures(address) %0, i64 noundef %1) local_unnamed_addr #4 {
  %3 = getelementptr i8, ptr %0, i64 %1
  %4 = load i32, ptr @preseed, align 4
  %5 = trunc i64 %1 to i32
  %6 = add i32 %4, %5
  %7 = icmp ult ptr %0, %3
  br i1 %7, label %.lr.ph, label %._crit_edge

.lr.ph:                                           ; preds = %2, %.lr.ph
  %.042 = phi i32 [ %14, %.lr.ph ], [ %6, %2 ]
  %.04041 = phi ptr [ %11, %.lr.ph ], [ %0, %2 ]
  %8 = mul i32 %.042, 1025
  %9 = lshr i32 %8, 6
  %10 = xor i32 %9, %8
  %11 = getelementptr i8, ptr %.04041, i64 1
  %12 = load i8, ptr %.04041, align 1
  %13 = zext i8 %12 to i32
  %14 = add i32 %10, %13
  %exitcond.not = icmp eq ptr %11, %3
  br i1 %exitcond.not, label %._crit_edge, label %.lr.ph, !llvm.loop !24

._crit_edge:                                      ; preds = %.lr.ph, %2
  %.0.lcssa = phi i32 [ %6, %2 ], [ %14, %.lr.ph ]
  %15 = mul i32 %.0.lcssa, 1025
  %16 = lshr i32 %15, 6
  %17 = xor i32 %16, %15
  %18 = load i8, ptr @postseed, align 4
  %19 = zext i8 %18 to i32
  %20 = add i32 %17, %19
  %21 = mul i32 %20, 1025
  %22 = lshr i32 %21, 6
  %23 = xor i32 %22, %21
  %24 = load i8, ptr getelementptr inbounds nuw (i8, ptr @postseed, i64 1), align 1
  %25 = zext i8 %24 to i32
  %26 = add i32 %23, %25
  %27 = mul i32 %26, 1025
  %28 = lshr i32 %27, 6
  %29 = xor i32 %28, %27
  %30 = load i8, ptr getelementptr inbounds nuw (i8, ptr @postseed, i64 2), align 2
  %31 = zext i8 %30 to i32
  %32 = add i32 %29, %31
  %33 = mul i32 %32, 1025
  %34 = lshr i32 %33, 6
  %35 = xor i32 %34, %33
  %36 = load i8, ptr getelementptr inbounds nuw (i8, ptr @postseed, i64 3), align 1
  %37 = zext i8 %36 to i32
  %38 = add i32 %35, %37
  %39 = mul i32 %38, 1025
  %40 = lshr i32 %39, 6
  %41 = xor i32 %40, %39
  %42 = mul i32 %41, 9
  %43 = lshr i32 %42, 11
  %44 = xor i32 %43, %42
  %45 = mul i32 %44, 32769
  ret i32 %45
}